target datalayout = "e-m:e-p270:32:32-p271:32:32-p272:64:64-i64:64-i128:128-f80:128-n8:16:32:64-S128"
target triple = "x86_64-pc-linux-gnu"

%struct.TParser = type { ptr, i32, ptr, ptr, i8, i32, ptr, i8, i8, i8, ptr, i32, i32, i32 }
%struct.TParserPosition = type { i32, i32, i32, i32, i32, i32, ptr, ptr }

; Function Attrs: nounwind uwtable
define internal i32 @p_isspecial(ptr noundef %0) #0 {
  %2 = alloca i32, align 4
  %3 = alloca ptr, align 8
  %4 = alloca ptr, align 8
  %5 = alloca ptr, align 8
  %6 = alloca ptr, align 8
  %7 = alloca i32, align 4
  %8 = alloca i32, align 4
  store ptr %0, ptr %3, align 8
  %9 = load ptr, ptr %3, align 8
  %10 = getelementptr inbounds nuw %struct.TParser, ptr %9, i32 0, i32 0
  %11 = load ptr, ptr %10, align 8
  %12 = load ptr, ptr %3, align 8
  %13 = getelementptr inbounds nuw %struct.TParser, ptr %12, i32 0, i32 6
  %14 = load ptr, ptr %13, align 8
  %15 = getelementptr inbounds nuw %struct.TParserPosition, ptr %14, i32 0, i32 0
  %16 = load i32, ptr %15, align 8
  %17 = sext i32 %16 to i64
  %18 = getelementptr inbounds i8, ptr %11, i64 %17
  %19 = call i32 @pg_dsplen(ptr noundef %18)
  %20 = icmp eq i32 %19, 0
  br i1 %20, label %21, label %22

21:                                               ; preds = %1
  store i32 1, ptr %2, align 4
  br label %96

22:                                               ; preds = %1
  %23 = call i32 @GetDatabaseEncoding()
  %24 = icmp eq i32 %23, 6
  br i1 %24, label %25, label %95

25:                                               ; preds = %22
  %26 = load ptr, ptr %3, align 8
  %27 = getelementptr inbounds nuw %struct.TParser, ptr %26, i32 0, i32 4
  %28 = load i8, ptr %27, align 8, !range !4, !noundef !5
  %29 = trunc i8 %28 to i1
  br i1 %29, label %30, label %95

30:                                               ; preds = %25
  call void @llvm.lifetime.start.p0(i64 8, ptr %4) #11
  store ptr @p_isspecial.strange_letter, ptr %4, align 8
  call void @llvm.lifetime.start.p0(i64 8, ptr %5) #11
  store ptr getelementptr inbounds nuw (i32, ptr @p_isspecial.strange_letter, i64 228), ptr %5, align 8
  call void @llvm.lifetime.start.p0(i64 8, ptr %6) #11
  call void @llvm.lifetime.start.p0(i64 4, ptr %7) #11
  %31 = load ptr, ptr %3, align 8
  %32 = getelementptr inbounds nuw %struct.TParser, ptr %31, i32 0, i32 3
  %33 = load ptr, ptr %32, align 8
  %34 = icmp ne ptr %33, null
  br i1 %34, label %35, label %47

35:                                               ; preds = %30
  %36 = load ptr, ptr %3, align 8
  %37 = getelementptr inbounds nuw %struct.TParser, ptr %36, i32 0, i32 3
  %38 = load ptr, ptr %37, align 8
  %39 = load ptr, ptr %3, align 8
  %40 = getelementptr inbounds nuw %struct.TParser, ptr %39, i32 0, i32 6
  %41 = load ptr, ptr %40, align 8
  %42 = getelementptr inbounds nuw %struct.TParserPosition, ptr %41, i32 0, i32 1
  %43 = load i32, ptr %42, align 4
  %44 = sext i32 %43 to i64
  %45 = getelementptr inbounds i32, ptr %38, i64 %44
  %46 = load i32, ptr %45, align 4
  store i32 %46, ptr %7, align 4
  br label %59

47:                                               ; preds = %30
  %48 = load ptr, ptr %3, align 8
  %49 = getelementptr inbounds nuw %struct.TParser, ptr %48, i32 0, i32 2
  %50 = load ptr, ptr %49, align 8
  %51 = load ptr, ptr %3, align 8
  %52 = getelementptr inbounds nuw %struct.TParser, ptr %51, i32 0, i32 6
  %53 = load ptr, ptr %52, align 8
  %54 = getelementptr inbounds nuw %struct.TParserPosition, ptr %53, i32 0, i32 1
  %55 = load i32, ptr %54, align 4
  %56 = sext i32 %55 to i64
  %57 = getelementptr inbounds i32, ptr %50, i64 %56
  %58 = load i32, ptr %57, align 4
  store i32 %58, ptr %7, align 4
  br label %59

59:                                               ; preds = %47, %35
  br label %60

60:                                               ; preds = %90, %59
  %61 = load ptr, ptr %4, align 8
  %62 = load ptr, ptr %5, align 8
  %63 = icmp ult ptr %61, %62
  br i1 %63, label %64, label %91

64:                                               ; preds = %60
  %65 = load ptr, ptr %4, align 8
  %66 = load ptr, ptr %5, align 8
  %67 = load ptr, ptr %4, align 8
  %68 = ptrtoint ptr %66 to i64
  %69 = ptrtoint ptr %67 to i64
  %70 = sub i64 %68, %69
  %71 = sdiv exact i64 %70, 4
  %72 = ashr i64 %71, 1
  %73 = getelementptr inbounds i32, ptr %65, i64 %72
  store ptr %73, ptr %6, align 8
  %74 = load ptr, ptr %6, align 8
  %75 = load i32, ptr %74, align 4
  %76 = load i32, ptr %7, align 4
  %77 = icmp eq i32 %75, %76
  br i1 %77, label %78, label %79

78:                                               ; preds = %64
  store i32 1, ptr %2, align 4
  store i32 1, ptr %8, align 4
  br label %92

79:                                               ; preds = %64
  %80 = load ptr, ptr %6, align 8
  %81 = load i32, ptr %80, align 4
  %82 = load i32, ptr %7, align 4
  %83 = icmp ult i32 %81, %82
  br i1 %83, label %84, label %87

84:                                               ; preds = %79
  %85 = load ptr, ptr %6, align 8
  %86 = getelementptr inbounds i32, ptr %85, i64 1
  store ptr %86, ptr %4, align 8
  br label %89

87:                                               ; preds = %79
  %88 = load ptr, ptr %6, align 8
  store ptr %88, ptr %5, align 8
  br label %89

89:                                               ; preds = %87, %84
  br label %90

90:                                               ; preds = %89
  br label %60, !llvm.loop !30

91:                                               ; preds = %60
  store i32 0, ptr %8, align 4
  br label %92

92:                                               ; preds = %91, %78
  call void @llvm.lifetime.end.p0(i64 4, ptr %7) #11
  call void @llvm.lifetime.end.p0(i64 8, ptr %6) #11
  call void @llvm.lifetime.end.p0(i64 8, ptr %5) #11
  call void @llvm.lifetime.end.p0(i64 8, ptr %4) #11
  %93 = load i32, ptr %8, align 4
  switch i32 %93, label %98 [
    i32 0, label %94
    i32 1, label %96
  ]

94:                                               ; preds = %92
  br label %95

95:                                               ; preds = %94, %25, %22
  store i32 0, ptr %2, align 4
  br label %96

96:                                               ; preds = %95, %92, %21
  %97 = load i32, ptr %2, align 4
  ret i32 %97

98:                                               ; preds = %92
  unreachable
}