; Function Attrs: nounwind uwtable
define internal range(i32 0, 2) i32 @p_isspecial(ptr noundef readonly captures(none) %0) #0 {
  %2 = load ptr, ptr %0, align 8
  %3 = getelementptr inbounds nuw i8, ptr %0, i64 40
  %4 = load ptr, ptr %3, align 8
  %5 = load i32, ptr %4, align 8
  %6 = sext i32 %5 to i64
  %7 = getelementptr inbounds i8, ptr %2, i64 %6
  %8 = tail call i32 @pg_dsplen(ptr noundef %7) #16
  %9 = icmp eq i32 %8, 0
  br i1 %9, label %.thread, label %10

10:                                               ; preds = %1
  %11 = tail call i32 @GetDatabaseEncoding() #16
  %12 = icmp eq i32 %11, 6
  br i1 %12, label %13, label %.thread

13:                                               ; preds = %10
  %14 = getelementptr inbounds nuw i8, ptr %0, i64 32
  %15 = load i8, ptr %14, align 8, !range !4, !noundef !5
  %16 = trunc nuw i8 %15 to i1
  br i1 %16, label %17, label %.thread

17:                                               ; preds = %13
  %18 = getelementptr inbounds nuw i8, ptr %0, i64 24
  %19 = load ptr, ptr %18, align 8
  %.not = icmp eq ptr %19, null
  br i1 %.not, label %20, label %23

20:                                               ; preds = %17
  %21 = getelementptr inbounds nuw i8, ptr %0, i64 16
  %22 = load ptr, ptr %21, align 8
  br label %23

23:                                               ; preds = %17, %20
  %.sink = phi ptr [ %22, %20 ], [ %19, %17 ]
  %24 = load ptr, ptr %3, align 8
  %25 = getelementptr inbounds nuw i8, ptr %24, i64 4
  %26 = load i32, ptr %25, align 4
  %27 = sext i32 %26 to i64
  %28 = getelementptr inbounds i32, ptr %.sink, i64 %27
  %.020 = load i32, ptr %28, align 4
  br label %29

29:                                               ; preds = %23, %37
  %.02230 = phi ptr [ getelementptr inbounds nuw (i8, ptr @p_isspecial.strange_letter, i64 912), %23 ], [ %.123, %37 ]
  %.02429 = phi ptr [ @p_isspecial.strange_letter, %23 ], [ %.125, %37 ]
  %30 = ptrtoint ptr %.02230 to i64
  %31 = ptrtoint ptr %.02429 to i64
  %32 = sub i64 %30, %31
  %33 = ashr i64 %32, 3
  %34 = getelementptr inbounds i32, ptr %.02429, i64 %33
  %35 = load i32, ptr %34, align 4
  %36 = icmp eq i32 %35, %.020
  br i1 %36, label %.thread, label %37

37:                                               ; preds = %29
  %38 = icmp ult i32 %35, %.020
  %39 = getelementptr inbounds nuw i8, ptr %34, i64 4
  %.125 = select i1 %38, ptr %39, ptr %.02429
  %.123 = select i1 %38, ptr %.02230, ptr %34
  %40 = icmp ult ptr %.125, %.123
  br i1 %40, label %29, label %.thread, !llvm.loop !33

.thread:                                          ; preds = %37, %29, %10, %13, %1
  %.021 = phi i32 [ 1, %1 ], [ 0, %13 ], [ 0, %10 ], [ 0, %37 ], [ 1, %29 ]
  ret i32 %.021
}